target datalayout = "e-m:e-p270:32:32-p271:32:32-p272:64:64-i64:64-i128:128-f80:128-n8:16:32:64-S128"
target triple = "x86_64-pc-linux-gnu"

%struct.Gia_Obj_t_ = type <{ i64, i32 }>

; Function Attrs: nounwind uwtable
define internal ptr @Gia_ObjFanin1(ptr noundef %0) #0 {
  %2 = alloca ptr, align 8
  store ptr %0, ptr %2, align 8
  %3 = load ptr, ptr %2, align 8
  %4 = load ptr, ptr %2, align 8
  %5 = load i64, ptr %4, align 4
  %6 = lshr i64 %5, 32
  %7 = and i64 %6, 536870911
  %8 = trunc i64 %7 to i32
  %9 = sext i32 %8 to i64
  %10 = sub i64 0, %9
  %11 = getelementptr inbounds %struct.Gia_Obj_t_, ptr %3, i64 %10
  ret ptr %11
}

; Function Attrs: nounwind uwtable
define internal ptr @Gia_ObjFanin0(ptr noundef %0) #0 {
  %2 = alloca ptr, align 8
  store ptr %0, ptr %2, align 8
  %3 = load ptr, ptr %2, align 8
  %4 = load ptr, ptr %2, align 8
  %5 = load i64, ptr %4, align 4
  %6 = and i64 %5, 536870911
  %7 = trunc i64 %6 to i32
  %8 = sext i32 %7 to i64
  %9 = sub i64 0, %8
  %10 = getelementptr inbounds %struct.Gia_Obj_t_, ptr %3, i64 %9
  ret ptr %10
}

; Function Attrs: nounwind uwtable
define i32 @Ga2_ManBreakTree_rec(ptr noundef %0, ptr noundef %1, i32 noundef %2, i32 noundef %3) #0 {
  %5 = alloca i32, align 4
  %6 = alloca ptr, align 8
  %7 = alloca ptr, align 8
  %8 = alloca i32, align 4
  %9 = alloca i32, align 4
  %10 = alloca i32, align 4
  %11 = alloca i32, align 4
  store ptr %0, ptr %6, align 8
  store ptr %1, ptr %7, align 8
  store i32 %2, ptr %8, align 4
  store i32 %3, ptr %9, align 4
  %12 = load ptr, ptr %7, align 8
  %13 = load i64, ptr %12, align 4
  %14 = lshr i64 %13, 63
  %15 = trunc i64 %14 to i32
  %16 = icmp ne i32 %15, 0
  br i1 %16, label %17, label %21

17:                                               ; preds = %4
  %18 = load i32, ptr %8, align 4
  %19 = icmp ne i32 %18, 0
  br i1 %19, label %21, label %20

20:                                               ; preds = %17
  store i32 1, ptr %5, align 4
  br label %90

21:                                               ; preds = %17, %4
  %22 = load ptr, ptr %6, align 8
  %23 = load ptr, ptr %7, align 8
  %24 = call ptr @Gia_ObjFanin0(ptr noundef %23)
  %25 = load i32, ptr %9, align 4
  %26 = call i32 @Ga2_ManBreakTree_rec(ptr noundef %22, ptr noundef %24, i32 noundef 0, i32 noundef %25)
  store i32 %26, ptr %10, align 4
  %27 = load ptr, ptr %6, align 8
  %28 = load ptr, ptr %7, align 8
  %29 = call ptr @Gia_ObjFanin1(ptr noundef %28)
  %30 = load i32, ptr %9, align 4
  %31 = call i32 @Ga2_ManBreakTree_rec(ptr noundef %27, ptr noundef %29, i32 noundef 0, i32 noundef %30)
  store i32 %31, ptr %11, align 4
  %32 = load i32, ptr %10, align 4
  %33 = load i32, ptr %11, align 4
  %34 = add nsw i32 %32, %33
  %35 = load i32, ptr %9, align 4
  %36 = icmp slt i32 %34, %35
  br i1 %36, label %37, label %41

37:                                               ; preds = %21
  %38 = load i32, ptr %10, align 4
  %39 = load i32, ptr %11, align 4
  %40 = add nsw i32 %38, %39
  store i32 %40, ptr %5, align 4
  br label %90

41:                                               ; preds = %21
  %42 = load i32, ptr %10, align 4
  %43 = load i32, ptr %11, align 4
  %44 = add nsw i32 %42, %43
  %45 = load i32, ptr %9, align 4
  %46 = icmp eq i32 %44, %45
  br i1 %46, label %47, label %52

47:                                               ; preds = %41
  %48 = load ptr, ptr %7, align 8
  %49 = load i64, ptr %48, align 4
  %50 = and i64 %49, 9223372036854775807
  %51 = or i64 %50, -9223372036854775808
  store i64 %51, ptr %48, align 4
  store i32 1, ptr %5, align 4
  br label %90

52:                                               ; preds = %41
  %53 = load i32, ptr %10, align 4
  %54 = load i32, ptr %11, align 4
  %55 = icmp sge i32 %53, %54
  br i1 %55, label %56, label %62

56:                                               ; preds = %52
  %57 = load ptr, ptr %7, align 8
  %58 = call ptr @Gia_ObjFanin0(ptr noundef %57)
  %59 = load i64, ptr %58, align 4
  %60 = and i64 %59, 9223372036854775807
  %61 = or i64 %60, -9223372036854775808
  store i64 %61, ptr %58, align 4
  store i32 1, ptr %10, align 4
  br label %68

62:                                               ; preds = %52
  %63 = load ptr, ptr %7, align 8
  %64 = call ptr @Gia_ObjFanin1(ptr noundef %63)
  %65 = load i64, ptr %64, align 4
  %66 = and i64 %65, 9223372036854775807
  %67 = or i64 %66, -9223372036854775808
  store i64 %67, ptr %64, align 4
  store i32 1, ptr %11, align 4
  br label %68

68:                                               ; preds = %62, %56
  %69 = load i32, ptr %10, align 4
  %70 = load i32, ptr %11, align 4
  %71 = add nsw i32 %69, %70
  %72 = load i32, ptr %9, align 4
  %73 = icmp slt i32 %71, %72
  br i1 %73, label %74, label %78

74:                                               ; preds = %68
  %75 = load i32, ptr %10, align 4
  %76 = load i32, ptr %11, align 4
  %77 = add nsw i32 %75, %76
  store i32 %77, ptr %5, align 4
  br label %90

78:                                               ; preds = %68
  %79 = load i32, ptr %10, align 4
  %80 = load i32, ptr %11, align 4
  %81 = add nsw i32 %79, %80
  %82 = load i32, ptr %9, align 4
  %83 = icmp eq i32 %81, %82
  br i1 %83, label %84, label %89

84:                                               ; preds = %78
  %85 = load ptr, ptr %7, align 8
  %86 = load i64, ptr %85, align 4
  %87 = and i64 %86, 9223372036854775807
  %88 = or i64 %87, -9223372036854775808
  store i64 %88, ptr %85, align 4
  store i32 1, ptr %5, align 4
  br label %90

89:                                               ; preds = %78
  store i32 -1, ptr %5, align 4
  br label %90

90:                                               ; preds = %89, %84, %74, %47, %37, %20
  %91 = load i32, ptr %5, align 4
  ret i32 %91
}