; Function Attrs: nofree nosync nounwind memory(argmem: readwrite) uwtable
define range(i32 -2147483648, 2147483647) i32 @Ga2_ManBreakTree_rec(ptr noundef %0, ptr noundef %1, i32 noundef %2, i32 noundef %3) local_unnamed_addr #2 {
  %5 = load i64, ptr %1, align 4
  %6 = icmp sgt i64 %5, -1
  %7 = icmp ne i32 %2, 0
  %or.cond = or i1 %7, %6
  br i1 %or.cond, label %8, label %37

8:                                                ; preds = %4
  %9 = and i64 %5, 536870911
  %10 = sub nsw i64 0, %9
  %11 = getelementptr inbounds %struct.Gia_Obj_t_, ptr %1, i64 %10
  %12 = tail call i32 @Ga2_ManBreakTree_rec(ptr noundef %0, ptr noundef nonnull %11, i32 noundef 0, i32 noundef %3)
  %13 = load i64, ptr %1, align 4
  %14 = lshr i64 %13, 32
  %15 = and i64 %14, 536870911
  %16 = sub nsw i64 0, %15
  %17 = getelementptr inbounds %struct.Gia_Obj_t_, ptr %1, i64 %16
  %18 = tail call i32 @Ga2_ManBreakTree_rec(ptr noundef %0, ptr noundef nonnull %17, i32 noundef 0, i32 noundef %3)
  %19 = add nsw i32 %18, %12
  %20 = icmp slt i32 %19, %3
  br i1 %20, label %37, label %21

21:                                               ; preds = %8
  %22 = icmp eq i32 %19, %3
  br i1 %22, label %.sink.split, label %23

23:                                               ; preds = %21
  %.not = icmp slt i32 %12, %18
  %24 = load i64, ptr %1, align 4
  %25 = lshr i64 %24, 32
  %.sink42 = select i1 %.not, i64 %25, i64 %24
  %.031 = select i1 %.not, i32 %12, i32 1
  %.0 = select i1 %.not, i32 1, i32 %18
  %26 = and i64 %.sink42, 536870911
  %27 = sub nsw i64 0, %26
  %28 = getelementptr inbounds %struct.Gia_Obj_t_, ptr %1, i64 %27
  %29 = load i64, ptr %28, align 4
  %30 = or i64 %29, -9223372036854775808
  store i64 %30, ptr %28, align 4
  %31 = add nsw i32 %.0, %.031
  %32 = icmp slt i32 %31, %3
  br i1 %32, label %37, label %33

33:                                               ; preds = %23
  %34 = icmp eq i32 %31, %3
  br i1 %34, label %.sink.split, label %37

.sink.split:                                      ; preds = %33, %21
  %35 = load i64, ptr %1, align 4
  %36 = or i64 %35, -9223372036854775808
  store i64 %36, ptr %1, align 4
  br label %37

37:                                               ; preds = %.sink.split, %33, %23, %8, %4
  %.032 = phi i32 [ 1, %4 ], [ %19, %8 ], [ %31, %23 ], [ -1, %33 ], [ 1, %.sink.split ]
  ret i32 %.032
}